; Function Attrs: mustprogress nofree norecurse nosync nounwind willreturn memory(read, inaccessiblemem: none) uwtable
define range(i32 -128, 128) i32 @ff_vvc_get_qPy(ptr noundef readonly captures(none) %0, i32 noundef %1, i32 noundef %2) local_unnamed_addr #4 {
  %4 = getelementptr inbounds nuw i8, ptr %0, i64 1928
  %5 = load ptr, ptr %4, align 8, !tbaa !18
  %6 = getelementptr inbounds nuw i8, ptr %5, i64 34
  %7 = load i8, ptr %6, align 2, !tbaa !190
  %8 = zext i8 %7 to i32
  %9 = ashr i32 %1, %8
  %10 = ashr i32 %2, %8
  %11 = getelementptr inbounds nuw i8, ptr %0, i64 21448
  %12 = load ptr, ptr %11, align 8, !tbaa !191
  %13 = getelementptr inbounds nuw i8, ptr %0, i64 1936
  %14 = load ptr, ptr %13, align 8, !tbaa !54
  %15 = getelementptr inbounds nuw i8, ptr %14, i64 4034
  %16 = load i16, ptr %15, align 2, !tbaa !192
  %17 = zext i16 %16 to i32
  %18 = mul nsw i32 %10, %17
  %19 = add nsw i32 %18, %9
  %20 = sext i32 %19 to i64
  %21 = getelementptr inbounds i8, ptr %12, i64 %20
  %22 = load i8, ptr %21, align 1, !tbaa !93
  %23 = sext i8 %22 to i32
  ret i32 %23
}